; Function Attrs: nounwind uwtable
define internal ptr @_sha3_sha3_224_copy(ptr noundef %0, ptr readnone captures(none) %1) #0 {
  %3 = getelementptr i8, ptr %0, i64 8
  %.val.i = load ptr, ptr %3, align 8, !tbaa !22
  %4 = tail call ptr @_PyObject_GC_New(ptr noundef %.val.i) #4
  %5 = icmp eq ptr %4, null
  br i1 %5, label %_sha3_sha3_224_copy_impl.exit, label %6

6:                                                ; preds = %2
  %7 = getelementptr inbounds nuw i8, ptr %4, i64 17
  store i8 0, ptr %7, align 1, !tbaa !15
  %8 = getelementptr inbounds nuw i8, ptr %4, i64 16
  store i8 0, ptr %8, align 8, !tbaa !51
  tail call void @PyObject_GC_Track(ptr noundef nonnull %4) #4
  %9 = getelementptr inbounds nuw i8, ptr %0, i64 16
  %10 = load i8, ptr %9, align 8, !tbaa !51, !range !58, !noundef !59
  %11 = trunc nuw i8 %10 to i1
  br i1 %11, label %12, label %_PyMutex_Lock.exit.i

12:                                               ; preds = %6
  %13 = getelementptr inbounds nuw i8, ptr %0, i64 17
  %14 = cmpxchg ptr %13, i8 0, i8 1 seq_cst seq_cst, align 1
  %15 = extractvalue { i8, i1 } %14, 1
  br i1 %15, label %_PyMutex_Lock.exit.i, label %16

16:                                               ; preds = %12
  tail call void @PyMutex_Lock(ptr noundef nonnull %13) #4
  br label %_PyMutex_Lock.exit.i

_PyMutex_Lock.exit.i:                             ; preds = %16, %12, %6
  %17 = getelementptr inbounds nuw i8, ptr %0, i64 24
  %18 = load ptr, ptr %17, align 8, !tbaa !16
  %19 = tail call ptr @python_hashlib_Hacl_Hash_SHA3_copy(ptr noundef %18) #4
  %20 = getelementptr inbounds nuw i8, ptr %4, i64 24
  store ptr %19, ptr %20, align 8, !tbaa !16
  %21 = load i8, ptr %9, align 8, !tbaa !51, !range !58, !noundef !59
  %22 = trunc nuw i8 %21 to i1
  br i1 %22, label %23, label %_sha3_sha3_224_copy_impl.exit

23:                                               ; preds = %_PyMutex_Lock.exit.i
  %24 = getelementptr inbounds nuw i8, ptr %0, i64 17
  %25 = cmpxchg ptr %24, i8 1, i8 0 seq_cst seq_cst, align 1
  %26 = extractvalue { i8, i1 } %25, 1
  br i1 %26, label %_sha3_sha3_224_copy_impl.exit, label %27

27:                                               ; preds = %23
  tail call void @PyMutex_Unlock(ptr noundef nonnull %24) #4
  br label %_sha3_sha3_224_copy_impl.exit

_sha3_sha3_224_copy_impl.exit:                    ; preds = %2, %_PyMutex_Lock.exit.i, %23, %27
  ret ptr %4
}